; Function Attrs: mustprogress nounwind uwtable
define dso_local void @__DumpBacktrace(ptr nocapture noundef %fp) local_unnamed_addr #3 {
entry:
  tail call void @_ZN4node19DumpNativeBacktraceEP8_IO_FILE(ptr noundef %fp)
  %call.i = tail call noundef ptr @_ZN2v87Isolate13TryGetCurrentEv() #17
  %cmp.i = icmp eq ptr %call.i, null
  br i1 %cmp.i, label %_ZN4node23DumpJavaScriptBacktraceEP8_IO_FILE.exit, label %if.end.i

if.end.i:                                         ; preds = %entry
  %call1.i = tail call ptr @_ZN4node20GetCurrentStackTraceEPN2v87IsolateEi(ptr noundef nonnull %call.i, i32 noundef 10) #17
  %cmp.i.i = icmp eq ptr %call1.i, null
  br i1 %cmp.i.i, label %_ZN4node23DumpJavaScriptBacktraceEP8_IO_FILE.exit, label %if.end7.i

if.end7.i:                                        ; preds = %if.end.i
  %0 = tail call i64 @fwrite(ptr nonnull @.str.81, i64 37, i64 1, ptr %fp)
  tail call void @_ZN4node15PrintStackTraceEPN2v87IsolateENS0_5LocalINS0_10StackTraceEEENS_16StackTracePrefixE(ptr noundef nonnull %call.i, ptr nonnull %call1.i, i32 noundef 1) #17
  %fputc.i = tail call i32 @fputc(i32 10, ptr %fp)
  br label %_ZN4node23DumpJavaScriptBacktraceEP8_IO_FILE.exit

_ZN4node23DumpJavaScriptBacktraceEP8_IO_FILE.exit: ; preds = %entry, %if.end.i, %if.end7.i
  ret void
}